target datalayout = "e-m:e-p270:32:32-p271:32:32-p272:64:64-i64:64-i128:128-f80:128-n8:16:32:64-S128"
target triple = "x86_64-pc-linux-gnu"

%struct.KINMemRec = type { ptr, double, ptr, ptr, double, double, i32, i64, i64, i64, i64, i32, i32, i32, i32, i32, i32, i32, i32, double, double, double, double, double, double, double, double, double, i32, double, i64, i64, i64, i64, i64, i64, i64, ptr, ptr, ptr, ptr, ptr, ptr, ptr, ptr, ptr, ptr, ptr, i32, i32, double, ptr, ptr, ptr, ptr, ptr, double, ptr, ptr, ptr, ptr, i64, i64, i32, ptr, ptr, i32, ptr, ptr, i64, i64, i64, i64, ptr, ptr, ptr, ptr, i32, ptr, double, double, double, double, double, i32, double, double, double, i32 }
%struct.KINLsMemRec = type { i32, i32, i32, ptr, ptr, ptr, ptr, double, i64, i64, i64, i64, i64, i64, i64, i32, i32, ptr, ptr, ptr, ptr, i32, ptr, ptr, ptr }

@.str = private unnamed_addr constant [118 x i8] c"generated/home/dtcxzyw/WorkSpace/Projects/compilers/llvm-opt-benchmark/bench/sundials/sundials/src/kinsol/kinsol_ls.c\00", align 1
@.str.1 = private unnamed_addr constant [23 x i8] c"KINSOL memory is NULL.\00", align 1
@__func__.KINGetNumLinIters = private unnamed_addr constant [18 x i8] c"KINGetNumLinIters\00", align 1
@.str.26 = private unnamed_addr constant [30 x i8] c"Linear solver memory is NULL.\00", align 1

; Function Attrs: nounwind uwtable
define i32 @kinLs_AccessLMem(ptr noundef %0, ptr noundef %1, ptr noundef %2, ptr noundef %3) #0 {
  %5 = alloca i32, align 4
  %6 = alloca ptr, align 8
  %7 = alloca ptr, align 8
  %8 = alloca ptr, align 8
  %9 = alloca ptr, align 8
  store ptr %0, ptr %6, align 8, !tbaa !3
  store ptr %1, ptr %7, align 8, !tbaa !105
  store ptr %2, ptr %8, align 8, !tbaa !107
  store ptr %3, ptr %9, align 8, !tbaa !109
  %10 = load ptr, ptr %6, align 8, !tbaa !3
  %11 = icmp eq ptr %10, null
  br i1 %11, label %12, label %14

12:                                               ; preds = %4
  %13 = load ptr, ptr %7, align 8, !tbaa !105
  call void (ptr, i32, i32, ptr, ptr, ptr, ...) @KINProcessError(ptr noundef null, i32 noundef -1, i32 noundef 1399, ptr noundef %13, ptr noundef @.str, ptr noundef @.str.1)
  store i32 -1, ptr %5, align 4
  br label %32

14:                                               ; preds = %4
  %15 = load ptr, ptr %6, align 8, !tbaa !3
  %16 = load ptr, ptr %8, align 8, !tbaa !107
  store ptr %15, ptr %16, align 8, !tbaa !11
  %17 = load ptr, ptr %8, align 8, !tbaa !107
  %18 = load ptr, ptr %17, align 8, !tbaa !11
  %19 = getelementptr inbounds nuw %struct.KINMemRec, ptr %18, i32 0, i32 78
  %20 = load ptr, ptr %19, align 8, !tbaa !66
  %21 = icmp eq ptr %20, null
  br i1 %21, label %22, label %26

22:                                               ; preds = %14
  %23 = load ptr, ptr %8, align 8, !tbaa !107
  %24 = load ptr, ptr %23, align 8, !tbaa !11
  %25 = load ptr, ptr %7, align 8, !tbaa !105
  call void (ptr, i32, i32, ptr, ptr, ptr, ...) @KINProcessError(ptr noundef %24, i32 noundef -2, i32 noundef 1406, ptr noundef %25, ptr noundef @.str, ptr noundef @.str.26)
  store i32 -2, ptr %5, align 4
  br label %32

26:                                               ; preds = %14
  %27 = load ptr, ptr %8, align 8, !tbaa !107
  %28 = load ptr, ptr %27, align 8, !tbaa !11
  %29 = getelementptr inbounds nuw %struct.KINMemRec, ptr %28, i32 0, i32 78
  %30 = load ptr, ptr %29, align 8, !tbaa !66
  %31 = load ptr, ptr %9, align 8, !tbaa !109
  store ptr %30, ptr %31, align 8, !tbaa !45
  store i32 0, ptr %5, align 4
  br label %32

32:                                               ; preds = %26, %22, %12
  %33 = load i32, ptr %5, align 4
  ret i32 %33
}

; Function Attrs: nounwind uwtable
define i32 @KINGetNumLinIters(ptr noundef %0, ptr noundef %1) #0 {
  %3 = alloca i32, align 4
  %4 = alloca ptr, align 8
  %5 = alloca ptr, align 8
  %6 = alloca ptr, align 8
  %7 = alloca ptr, align 8
  %8 = alloca i32, align 4
  %9 = alloca i32, align 4
  store ptr %0, ptr %4, align 8, !tbaa !3
  store ptr %1, ptr %5, align 8, !tbaa !113
  call void @llvm.lifetime.start.p0(i64 8, ptr %6) #7
  call void @llvm.lifetime.start.p0(i64 8, ptr %7) #7
  call void @llvm.lifetime.start.p0(i64 4, ptr %8) #7
  %10 = load ptr, ptr %4, align 8, !tbaa !3
  %11 = call i32 @kinLs_AccessLMem(ptr noundef %10, ptr noundef @__func__.KINGetNumLinIters, ptr noundef %6, ptr noundef %7)
  store i32 %11, ptr %8, align 4, !tbaa !20
  %12 = load i32, ptr %8, align 4, !tbaa !20
  %13 = icmp ne i32 %12, 0
  br i1 %13, label %14, label %16

14:                                               ; preds = %2
  %15 = load i32, ptr %8, align 4, !tbaa !20
  store i32 %15, ptr %3, align 4
  store i32 1, ptr %9, align 4
  br label %21

16:                                               ; preds = %2
  %17 = load ptr, ptr %7, align 8, !tbaa !45
  %18 = getelementptr inbounds nuw %struct.KINLsMemRec, ptr %17, i32 0, i32 11
  %19 = load i64, ptr %18, align 8, !tbaa !92
  %20 = load ptr, ptr %5, align 8, !tbaa !113
  store i64 %19, ptr %20, align 8, !tbaa !114
  store i32 0, ptr %3, align 4
  store i32 1, ptr %9, align 4
  br label %21

21:                                               ; preds = %16, %14
  call void @llvm.lifetime.end.p0(i64 4, ptr %8) #7
  call void @llvm.lifetime.end.p0(i64 8, ptr %7) #7
  call void @llvm.lifetime.end.p0(i64 8, ptr %6) #7
  %22 = load i32, ptr %3, align 4
  ret i32 %22
}